; Function Attrs: nofree norecurse nosync nounwind memory(argmem: readwrite) uwtable
define internal void @avg_no_rnd_pixels16_8_c(ptr noundef captures(none) %0, ptr noundef readonly captures(none) %1, i64 noundef %2, i32 noundef %3) #1 {
  %5 = icmp sgt i32 %3, 0
  br i1 %5, label %.lr.ph.i, label %avg_pixels8_8_c.exit12

.lr.ph.i:                                         ; preds = %4, %.lr.ph.i
  %.016.i = phi i32 [ %24, %.lr.ph.i ], [ 0, %4 ]
  %.01215.i = phi ptr [ %23, %.lr.ph.i ], [ %0, %4 ]
  %.01314.i = phi ptr [ %22, %.lr.ph.i ], [ %1, %4 ]
  %6 = load i32, ptr %.01215.i, align 4, !tbaa !9
  %7 = load i32, ptr %.01314.i, align 1, !tbaa !8
  %8 = or i32 %7, %6
  %9 = xor i32 %7, %6
  %10 = lshr i32 %9, 1
  %11 = and i32 %10, 2139062143
  %12 = sub i32 %8, %11
  store i32 %12, ptr %.01215.i, align 4, !tbaa !9
  %13 = getelementptr inbounds nuw i8, ptr %.01215.i, i64 4
  %14 = load i32, ptr %13, align 4, !tbaa !9
  %15 = getelementptr inbounds nuw i8, ptr %.01314.i, i64 4
  %16 = load i32, ptr %15, align 1, !tbaa !8
  %17 = or i32 %16, %14
  %18 = xor i32 %16, %14
  %19 = lshr i32 %18, 1
  %20 = and i32 %19, 2139062143
  %21 = sub i32 %17, %20
  store i32 %21, ptr %13, align 4, !tbaa !9
  %22 = getelementptr inbounds i8, ptr %.01314.i, i64 %2
  %23 = getelementptr inbounds i8, ptr %.01215.i, i64 %2
  %24 = add nuw nsw i32 %.016.i, 1
  %exitcond.not.i = icmp eq i32 %24, %3
  br i1 %exitcond.not.i, label %avg_pixels8_8_c.exit, label %.lr.ph.i, !llvm.loop !27

avg_pixels8_8_c.exit:                             ; preds = %.lr.ph.i
  %25 = getelementptr inbounds nuw i8, ptr %0, i64 8
  %26 = getelementptr inbounds nuw i8, ptr %1, i64 8
  br label %.lr.ph.i7

.lr.ph.i7:                                        ; preds = %avg_pixels8_8_c.exit, %.lr.ph.i7
  %.016.i8 = phi i32 [ %45, %.lr.ph.i7 ], [ 0, %avg_pixels8_8_c.exit ]
  %.01215.i9 = phi ptr [ %44, %.lr.ph.i7 ], [ %25, %avg_pixels8_8_c.exit ]
  %.01314.i10 = phi ptr [ %43, %.lr.ph.i7 ], [ %26, %avg_pixels8_8_c.exit ]
  %27 = load i32, ptr %.01215.i9, align 4, !tbaa !9
  %28 = load i32, ptr %.01314.i10, align 1, !tbaa !8
  %29 = or i32 %28, %27
  %30 = xor i32 %28, %27
  %31 = lshr i32 %30, 1
  %32 = and i32 %31, 2139062143
  %33 = sub i32 %29, %32
  store i32 %33, ptr %.01215.i9, align 4, !tbaa !9
  %34 = getelementptr inbounds nuw i8, ptr %.01215.i9, i64 4
  %35 = load i32, ptr %34, align 4, !tbaa !9
  %36 = getelementptr inbounds nuw i8, ptr %.01314.i10, i64 4
  %37 = load i32, ptr %36, align 1, !tbaa !8
  %38 = or i32 %37, %35
  %39 = xor i32 %37, %35
  %40 = lshr i32 %39, 1
  %41 = and i32 %40, 2139062143
  %42 = sub i32 %38, %41
  store i32 %42, ptr %34, align 4, !tbaa !9
  %43 = getelementptr inbounds i8, ptr %.01314.i10, i64 %2
  %44 = getelementptr inbounds i8, ptr %.01215.i9, i64 %2
  %45 = add nuw nsw i32 %.016.i8, 1
  %exitcond.not.i11 = icmp eq i32 %45, %3
  br i1 %exitcond.not.i11, label %avg_pixels8_8_c.exit12, label %.lr.ph.i7, !llvm.loop !27

avg_pixels8_8_c.exit12:                           ; preds = %.lr.ph.i7, %4
  ret void
}